target datalayout = "e-m:e-p270:32:32-p271:32:32-p272:64:64-i64:64-i128:128-f80:128-n8:16:32:64-S128"
target triple = "x86_64-pc-linux-gnu"

%struct.ps_serializer_struct = type { ptr, ptr, ptr }

; Function Attrs: nounwind uwtable
define ptr @_php_find_ps_serializer(ptr noundef %0) #0 {
  %2 = alloca ptr, align 8
  %3 = alloca ptr, align 8
  %4 = alloca ptr, align 8
  store ptr %0, ptr %2, align 8
  store ptr null, ptr %3, align 8
  store ptr @ps_serializers, ptr %4, align 8
  br label %5

5:                                                ; preds = %20, %1
  %6 = load ptr, ptr %4, align 8
  %7 = getelementptr inbounds %struct.ps_serializer_struct, ptr %6, i32 0, i32 0
  %8 = load ptr, ptr %7, align 8
  %9 = icmp ne ptr %8, null
  br i1 %9, label %10, label %23

10:                                               ; preds = %5
  %11 = load ptr, ptr %2, align 8
  %12 = load ptr, ptr %4, align 8
  %13 = getelementptr inbounds %struct.ps_serializer_struct, ptr %12, i32 0, i32 0
  %14 = load ptr, ptr %13, align 8
  %15 = call i32 @strcasecmp(ptr noundef %11, ptr noundef %14) #16
  %16 = icmp ne i32 %15, 0
  br i1 %16, label %19, label %17

17:                                               ; preds = %10
  %18 = load ptr, ptr %4, align 8
  store ptr %18, ptr %3, align 8
  br label %23

19:                                               ; preds = %10
  br label %20

20:                                               ; preds = %19
  %21 = load ptr, ptr %4, align 8
  %22 = getelementptr inbounds %struct.ps_serializer_struct, ptr %21, i32 1
  store ptr %22, ptr %4, align 8
  br label %5

23:                                               ; preds = %17, %5
  %24 = load ptr, ptr %3, align 8
  ret ptr %24
}