; Function Attrs: nofree nounwind memory(read) uwtable
define noundef ptr @_php_find_ps_serializer(ptr nocapture noundef readonly %0) local_unnamed_addr #7 {
  %2 = load ptr, ptr @ps_serializers, align 16
  %.not9 = icmp eq ptr %2, null
  br i1 %.not9, label %._crit_edge, label %.lr.ph

.lr.ph:                                           ; preds = %1, %5
  %3 = phi ptr [ %7, %5 ], [ %2, %1 ]
  %.010 = phi ptr [ %6, %5 ], [ @ps_serializers, %1 ]
  %4 = tail call i32 @strcasecmp(ptr noundef %0, ptr noundef nonnull %3) #26
  %.not8 = icmp eq i32 %4, 0
  br i1 %.not8, label %._crit_edge, label %5

5:                                                ; preds = %.lr.ph
  %6 = getelementptr inbounds i8, ptr %.010, i64 24
  %7 = load ptr, ptr %6, align 8
  %.not = icmp eq ptr %7, null
  br i1 %.not, label %._crit_edge, label %.lr.ph

._crit_edge:                                      ; preds = %5, %.lr.ph, %1
  %.06 = phi ptr [ null, %1 ], [ %.010, %.lr.ph ], [ null, %5 ]
  ret ptr %.06
}